
test：     文件格式 elf64-x86-64


Disassembly of section .init:

0000000000001000 <_init>:
    1000:	f3 0f 1e fa          	endbr64 
    1004:	48 83 ec 08          	sub    $0x8,%rsp
    1008:	48 8b 05 d9 2f 00 00 	mov    0x2fd9(%rip),%rax        # 3fe8 <__gmon_start__@Base>
    100f:	48 85 c0             	test   %rax,%rax
    1012:	74 02                	je     1016 <_init+0x16>
    1014:	ff d0                	call   *%rax
    1016:	48 83 c4 08          	add    $0x8,%rsp
    101a:	c3                   	ret    

Disassembly of section .plt:

0000000000001020 <.plt>:
    1020:	ff 35 92 2f 00 00    	push   0x2f92(%rip)        # 3fb8 <_GLOBAL_OFFSET_TABLE_+0x8>
    1026:	f2 ff 25 93 2f 00 00 	bnd jmp *0x2f93(%rip)        # 3fc0 <_GLOBAL_OFFSET_TABLE_+0x10>
    102d:	0f 1f 00             	nopl   (%rax)
    1030:	f3 0f 1e fa          	endbr64 
    1034:	68 00 00 00 00       	push   $0x0
    1039:	f2 e9 e1 ff ff ff    	bnd jmp 1020 <_init+0x20>
    103f:	90                   	nop
    1040:	f3 0f 1e fa          	endbr64 
    1044:	68 01 00 00 00       	push   $0x1
    1049:	f2 e9 d1 ff ff ff    	bnd jmp 1020 <_init+0x20>
    104f:	90                   	nop

Disassembly of section .plt.got:

0000000000001050 <__cxa_finalize@plt>:
    1050:	f3 0f 1e fa          	endbr64 
    1054:	f2 ff 25 9d 2f 00 00 	bnd jmp *0x2f9d(%rip)        # 3ff8 <__cxa_finalize@GLIBC_2.2.5>
    105b:	0f 1f 44 00 00       	nopl   0x0(%rax,%rax,1)

Disassembly of section .plt.sec:

0000000000001060 <puts@plt>:
    1060:	f3 0f 1e fa          	endbr64 
    1064:	f2 ff 25 5d 2f 00 00 	bnd jmp *0x2f5d(%rip)        # 3fc8 <puts@GLIBC_2.2.5>
    106b:	0f 1f 44 00 00       	nopl   0x0(%rax,%rax,1)

0000000000001070 <printf@plt>:
    1070:	f3 0f 1e fa          	endbr64 
    1074:	f2 ff 25 55 2f 00 00 	bnd jmp *0x2f55(%rip)        # 3fd0 <printf@GLIBC_2.2.5>
    107b:	0f 1f 44 00 00       	nopl   0x0(%rax,%rax,1)

Disassembly of section .text:

0000000000001080 <_start>:
    1080:	f3 0f 1e fa          	endbr64 
    1084:	31 ed                	xor    %ebp,%ebp
    1086:	49 89 d1             	mov    %rdx,%r9
    1089:	5e                   	pop    %rsi
    108a:	48 89 e2             	mov    %rsp,%rdx
    108d:	48 83 e4 f0          	and    $0xfffffffffffffff0,%rsp
    1091:	50                   	push   %rax
    1092:	54                   	push   %rsp
    1093:	45 31 c0             	xor    %r8d,%r8d
    1096:	31 c9                	xor    %ecx,%ecx
    1098:	48 8d 3d e8 00 00 00 	lea    0xe8(%rip),%rdi        # 1187 <main>
    109f:	ff 15 33 2f 00 00    	call   *0x2f33(%rip)        # 3fd8 <__libc_start_main@GLIBC_2.34>
    10a5:	f4                   	hlt    
    10a6:	66 2e 0f 1f 84 00 00 	cs nopw 0x0(%rax,%rax,1)
    10ad:	00 00 00 

00000000000010b0 <deregister_tm_clones>:
    10b0:	48 8d 3d 61 2f 00 00 	lea    0x2f61(%rip),%rdi        # 4018 <__TMC_END__>
    10b7:	48 8d 05 5a 2f 00 00 	lea    0x2f5a(%rip),%rax        # 4018 <__TMC_END__>
    10be:	48 39 f8             	cmp    %rdi,%rax
    10c1:	74 15                	je     10d8 <deregister_tm_clones+0x28>
    10c3:	48 8b 05 16 2f 00 00 	mov    0x2f16(%rip),%rax        # 3fe0 <_ITM_deregisterTMCloneTable@Base>
    10ca:	48 85 c0             	test   %rax,%rax
    10cd:	74 09                	je     10d8 <deregister_tm_clones+0x28>
    10cf:	ff e0                	jmp    *%rax
    10d1:	0f 1f 80 00 00 00 00 	nopl   0x0(%rax)
    10d8:	c3                   	ret    
    10d9:	0f 1f 80 00 00 00 00 	nopl   0x0(%rax)

00000000000010e0 <register_tm_clones>:
    10e0:	48 8d 3d 31 2f 00 00 	lea    0x2f31(%rip),%rdi        # 4018 <__TMC_END__>
    10e7:	48 8d 35 2a 2f 00 00 	lea    0x2f2a(%rip),%rsi        # 4018 <__TMC_END__>
    10ee:	48 29 fe             	sub    %rdi,%rsi
    10f1:	48 89 f0             	mov    %rsi,%rax
    10f4:	48 c1 ee 3f          	shr    $0x3f,%rsi
    10f8:	48 c1 f8 03          	sar    $0x3,%rax
    10fc:	48 01 c6             	add    %rax,%rsi
    10ff:	48 d1 fe             	sar    %rsi
    1102:	74 14                	je     1118 <register_tm_clones+0x38>
    1104:	48 8b 05 e5 2e 00 00 	mov    0x2ee5(%rip),%rax        # 3ff0 <_ITM_registerTMCloneTable@Base>
    110b:	48 85 c0             	test   %rax,%rax
    110e:	74 08                	je     1118 <register_tm_clones+0x38>
    1110:	ff e0                	jmp    *%rax
    1112:	66 0f 1f 44 00 00    	nopw   0x0(%rax,%rax,1)
    1118:	c3                   	ret    
    1119:	0f 1f 80 00 00 00 00 	nopl   0x0(%rax)

0000000000001120 <__do_global_dtors_aux>:
    1120:	f3 0f 1e fa          	endbr64 
    1124:	80 3d e9 2e 00 00 00 	cmpb   $0x0,0x2ee9(%rip)        # 4014 <completed.0>
    112b:	75 2b                	jne    1158 <__do_global_dtors_aux+0x38>
    112d:	55                   	push   %rbp
    112e:	48 83 3d c2 2e 00 00 	cmpq   $0x0,0x2ec2(%rip)        # 3ff8 <__cxa_finalize@GLIBC_2.2.5>
    1135:	00 
    1136:	48 89 e5             	mov    %rsp,%rbp
    1139:	74 0c                	je     1147 <__do_global_dtors_aux+0x27>
    113b:	48 8b 3d c6 2e 00 00 	mov    0x2ec6(%rip),%rdi        # 4008 <__dso_handle>
    1142:	e8 09 ff ff ff       	call   1050 <__cxa_finalize@plt>
    1147:	e8 64 ff ff ff       	call   10b0 <deregister_tm_clones>
    114c:	c6 05 c1 2e 00 00 01 	movb   $0x1,0x2ec1(%rip)        # 4014 <completed.0>
    1153:	5d                   	pop    %rbp
    1154:	c3                   	ret    
    1155:	0f 1f 00             	nopl   (%rax)
    1158:	c3                   	ret    
    1159:	0f 1f 80 00 00 00 00 	nopl   0x0(%rax)

0000000000001160 <frame_dummy>:
    1160:	f3 0f 1e fa          	endbr64 
    1164:	e9 77 ff ff ff       	jmp    10e0 <register_tm_clones>

0000000000001169 <add>:
    1169:	f3 0f 1e fa          	endbr64 
    116d:	55                   	push   %rbp
    116e:	48 89 e5             	mov    %rsp,%rbp
    1171:	48 89 7d f8          	mov    %rdi,-0x8(%rbp)
    1175:	48 8b 45 f8          	mov    -0x8(%rbp),%rax
    1179:	8b 00                	mov    (%rax),%eax
    117b:	8d 50 01             	lea    0x1(%rax),%edx
    117e:	48 8b 45 f8          	mov    -0x8(%rbp),%rax
    1182:	89 10                	mov    %edx,(%rax)
    1184:	90                   	nop
    1185:	5d                   	pop    %rbp
    1186:	c3                   	ret    

0000000000001187 <main>:
    1187:	f3 0f 1e fa          	endbr64 
    118b:	55                   	push   %rbp
    118c:	48 89 e5             	mov    %rsp,%rbp
    118f:	48 83 ec 10          	sub    $0x10,%rsp
    1193:	c7 45 fc 02 00 00 00 	movl   $0x2,-0x4(%rbp)
    119a:	48 8d 05 6f 2e 00 00 	lea    0x2e6f(%rip),%rax        # 4010 <pass>
    11a1:	48 89 c7             	mov    %rax,%rdi
    11a4:	e8 c0 ff ff ff       	call   1169 <add>
    11a9:	8b 05 61 2e 00 00    	mov    0x2e61(%rip),%eax        # 4010 <pass>
    11af:	39 45 fc             	cmp    %eax,-0x4(%rbp)
    11b2:	74 1b                	je     11cf <main+0x48>
    11b4:	48 8d 05 49 0e 00 00 	lea    0xe49(%rip),%rax        # 2004 <_IO_stdin_used+0x4>
    11bb:	48 89 c7             	mov    %rax,%rdi
    11be:	b8 00 00 00 00       	mov    $0x0,%eax
    11c3:	e8 a8 fe ff ff       	call   1070 <printf@plt>
    11c8:	b8 00 00 00 00       	mov    $0x0,%eax
    11cd:	eb 14                	jmp    11e3 <main+0x5c>
    11cf:	48 8d 05 3e 0e 00 00 	lea    0xe3e(%rip),%rax        # 2014 <_IO_stdin_used+0x14>
    11d6:	48 89 c7             	mov    %rax,%rdi
    11d9:	e8 82 fe ff ff       	call   1060 <puts@plt>
    11de:	b8 00 00 00 00       	mov    $0x0,%eax
    11e3:	c9                   	leave  
    11e4:	c3                   	ret    

Disassembly of section .fini:

00000000000011e8 <_fini>:
    11e8:	f3 0f 1e fa          	endbr64 
    11ec:	48 83 ec 08          	sub    $0x8,%rsp
    11f0:	48 83 c4 08          	add    $0x8,%rsp
    11f4:	c3                   	ret    
